(lp0
(lp1
V1XM3/EuWTlXb5/19CX2zxg==
p2
aV5F4IN8krIsp0hfT91szHbg==
p3
aV6+y6LU1Sjxlh7NgNSelwCw==
p4
aVSd1b312aR410UeJnWfjUhg==
p5
aVWABrowserId
p6
aVWASecretBundle
p7
aVWAToken1
p8
aVWAToken2
p9
aVdebugCursor
p10
aVlJgbnB5NsV9JeQxiRCCw1A==
p11
aVlogout-token
p12
aVnns9YmEDcFKPfQqyto9HhA==
p13
aVremember-me
p14
aVstorage_test
p15
aVuuYOzVOfaLks7KOE5kADBA==
p16
aVwhatsapp-mutex
p17
aa(lp18
V[{"id":"nhEhwKt7rGLlh5eUIU+MnA==","tag":"1499887278","raw":null},{"id":"8Y2J9y9XIBhz6/mKAY3Z8Q=="},{"id":"jjwv8fpVPaaxKemmC6W4lA=="},{"id":"FJhDH7PRTTFdo8ThbNlq3w==","tag":"1500031322","raw":null},{"id":"f2wIpKAqaNxgc4QWV2AXCg==","tag":null},{"id":"w+o1Kfr14gW5TZ6mHrMfBA==","tag":"1499024974","raw":null},{"id":"RWZ/V3eASakh+bq3Vfw7EA==","tag":"1499976892","raw":null},{"id":"6+duOoQTKPYJPfFCBTa9SA=="},{"id":"VnvMdNXiUTukfp3pzXUW9g=="},{"id":"rKk6kNrJALEzVIjpYDOuVw==","tag":"1448425549","raw":null},{"id":"mBBCyXGt7rO91q3Ttn4RSw=="},{"id":"lC2N68eXbEbqDaVKHtKoCg==","tag":null},{"id":"/w4lEiMNQQDuCui2qIRBtA=="},{"id":"Fl3ns9tbLw9XIKYMyedHxA==","tag":"1500083423","raw":null},{"id":"OJMoH2nUkmEYkvReDnNgqA==","tag":"1497752806","raw":null},{"id":"vvsPy3kiymaLZbxEXDGpJA=="},{"id":"0MKqxl6cGu65GSjeA6H5nA=="},{"id":"OZLAty5ccwoCqKUk5z+FDg=="},{"id":"vtbXntu6b9dEHrELUJWVLQ==","tag":"1497549804","raw":null},{"id":"7Yl5C60FSCOL42pE1jKe3g==","tag":"1499969906","raw":null},{"id":"Uf6q8CfzTGE9dGxqz1BiFQ==","tag":"1494517477","raw":null},{"id":"70yI1AtmY+ab+CU+GSr/Gw=="},{"id":"PNmvQ2cQopa1zXzfv3Xkng=="},{"id":"UTUe5xKxRZYw5iJnWPQ09w=="},{"id":"B1KcdmCYAUYjHgpYqSvBgQ=="},{"id":"/pvtZomF/I5Zwr1WICpJuQ==","tag":"1500023831","raw":null},{"id":"fdIx4TQkuPCNOp8Z6WPOaA==","tag":"1490538913","raw":null},{"id":"52bZo5Oo4ZxWrR+gBPClhw=="},{"id":"YZG9jVxdhNyOmROY+fIsHw==","tag":"1499614728","raw":null},{"id":"5OYgY7PdH62HJxYORq37fw==","tag":"1490558201","raw":null},{"id":"gAj3Ii3YIKKILfE2DVdOlg=="},{"id":"ZNYIPNvUDpZl2vxM+K2ReQ==","tag":"1478618733","raw":null},{"id":"m0PGS5dxec2O43WlY4fcIQ==","tag":"1500030524","raw":null},{"id":"3kS3hOwtDbXja8rarwr+9g==","tag":"1499801275","raw":null},{"id":"U6sKuFMo8jWNrrCp2ss6CQ==","tag":"1499973162","raw":null},{"id":"6MhItL1VKcpEEO6bFPP0Jg=="},{"id":"k2Vwu/l4jX2DIVllrX30Jg=="},{"id":"Z1CCrlfXdadO+2BKVid/dg=="},{"id":"zEddqgZCM9UG9Ew8/C5UoA=="},{"id":"xY6LFqTbcGWEoyiW7uLaCw=="},{"id":"5cw0yUrP12huTIwPcW89EA=="},{"id":"CHU6R4/C5OvejraXJFKcow=="},{"id":"jp8GJyPrwTbfuUxKpeIMyA=="},{"id":"aDV7JFMa/dXGZXNIjZ9Irw=="},{"id":"/uTxS8QUmMJVUAPLQ4PnWg=="},{"id":"hbYOqiqqPFV3pMdFKQ4wRQ=="},{"id":"bNI8e8mXdHVNCvalZWsYOA=="},{"id":"XbWeOyo55NxBhtEwdxPefw=="},{"id":"FtchaaHG7Wz6SSiz2Lw5Qw=="},{"id":"/j8LwQX1ddtSaEi5cNIJOw=="},{"id":"oU13J0BpXkIRuPmHZecqHg=="},{"id":"L2btLgDNEYVeasqmxkFjPg=="},{"id":"AuRiZcYLq5jVC7wAbmpSaA=="},{"id":"ohGyWzro3R9TV5yBrcF1ig=="},{"id":"PthqH+GKtJyiBpKDoI0izQ=="},{"id":"ifLcRk+eET6tgydllii5Pw=="},{"id":"DgmO6gstuznpcvz+K3ORLA=="},{"id":"ObLY3U1BSNtvPopcqJcJJw=="},{"id":"zR+eq0gOnMuknPsYZGnVNQ=="},{"id":"t015g9tC6Y63CPVTrfGVJw=="},{"id":"vDgeCMvcddSFkXligEuBrw=="},{"id":"vuqc8KVTPZjlW//KHr00ug=="},{"id":"Hur86UMYmW6ZC38F8qz2jg=="},{"id":"CpBbOf3RHv9kX48t4lEPkA=="},{"id":"qV+11u7yXLRGxM6cOsiX1A=="},{"id":"aG95CfNxw96aoOcs8noqMA=="},{"id":"ExD0ZVNeFTcPKfTgP8KvGg=="},{"id":"Y7Jmj0A4PKn4sylSq5j+mw=="},{"id":"nPmYgYYq8u/8AMDzhkvjig=="},{"id":"j24kLeAxcojo7FCS+0WzaA=="},{"id":"I4vIZj8kpACxLsTVGmyjfQ=="},{"id":"YwYCMGjKkuAwLbd+vy3KXA=="},{"id":"grt/uBQT5fui/WaIDlQY0Q=="},{"id":"Z+D0WDlaKZQ+qngpo4NcVA=="},{"id":"79xMz6XMUwu04VfRIxYAoA=="},{"id":"VPEEfqrIR42qwRq/Lk3K4g=="},{"id":"JZp1rwvKZCFceJWaCSbujA=="},{"id":"huOyODIfH/re/wB5fjBSDg=="},{"id":"5NcDiY31Be0VgB2iF1m9jw=="},{"id":"Lu7C4fhuL0yabYO2UgHNIA=="},{"id":"GbxarbO0AjX0WeHz+7KFLQ=="},{"id":"yxvbU/jWGXKDn2LjmPo0Sg=="},{"id":"+UWVHaupxn2zd05DwamITQ=="},{"id":"/z7XwWmLsEEmcjRj6/6MAA=="},{"id":"/o//7TgwxVf6k+cX2T1FMw=="},{"id":"hKuRSjlK0g4qj2fEFCNKOA=="},{"id":"XfJbWgtZLA9vuWOZAz0KIA=="},{"id":"OJ3JMSiefv3uFv2ShDIrag=="},{"id":"hzjnRXkOTz8Q2oPDVMc8XA=="},{"id":"JX+LKuxxc6EcE4lh4eyeYg=="},{"id":"yIjL2/vnySIFNO4JPZ4B2g=="},{"id":"bMMoa+K0oBF6chMaLWKT3A=="},{"id":"9VBFIZblRK9/uNySUZeqbw=="},{"id":"QL2DYDJxbyZK36pfkitJYg=="},{"id":"LQr5xb1Zhu/u0Nd3/6GgvA=="},{"id":"aToGWo84wbJ9cqcDloQCBg=="},{"id":"Jwp1wEbzfp/6KtpDZfkkSQ=="},{"id":"Q2jPwqYzSkLU4aVaoAIxfg=="},{"id":"7XUy+5yrM7tCjR87HV6dMg=="},{"id":"O4hANx6OhNjmDY+SbTojLA=="},{"id":"6BdnwYK6mX9RuSpg5dYgHw=="},{"id":"iS3HjMtfTfshocpD9Gx/Fg=="},{"id":"ptcC6DKs0mBM51cXFVpJdA=="},{"id":"tSyFcX+bsL3SYCGKw6iGVA=="},{"id":"4DK29RLnzo6l1/k/Qo7gWQ=="},{"id":"j0zwq+d0X4NPblZLtXqI8Q=="},{"id":"0ZIVPjnFIypPeyeON3L38A=="},{"id":"VLVmTuJ1j5vAtOo/A+vsAw=="},{"id":"V42Qpg1EppV7qFG+dEu08w=="},{"id":"Vuc6GIP8190h46EVRBl7Uw=="},{"id":"2KUYr9x0BAq7qCICOKHxww=="},{"id":"P57X8hoAjXLnUPBdmrjjlA=="},{"id":"ZKuRhw3/irP5cvnl2/1GXA=="},{"id":"9ITpEnNReERayRCv86iA+w=="},{"id":"E7CDPZEOI9yKRGKKnuRUZA=="},{"id":"LqPgjCztTgi8qrrvbUsRZQ=="},{"id":"JrdC3sG8tLwogXanoEBSyw=="},{"id":"njWAzTj+3WL6UE0Qr44+Ag=="},{"id":"lIcmNM8hO+E0hePM2bXtEQ=="},{"id":"VLm8rG7h0N1SSsntf9QrlA=="},{"id":"54WIVmK6dRcpVOxgf+Lz2w=="},{"id":"DLoZbBcGfxlsiDNvth4JEQ=="},{"id":"ptbTNDQHn2NciTXrmkwJmg=="},{"id":"inliMSJDQpRWCIH9vYx+Qw=="},{"id":"wKiWoU8FjJ/dDKF7bNY2Lw=="},{"id":"5YlOL7OQNEVMw8+hY9p/cg=="},{"id":"lJEi6hx4FvTXPpPfJBKsXA=="},{"id":"hOXh8pZSf+VYrINuWvoRbQ=="},{"id":"OEUIuwd1CTFNJYtEoAbtsw=="},{"id":"jgVW7ZQ9I1qgx+AT+zAJrA=="},{"id":"rgxPBjWOh+hIljrRwWh6BQ=="},{"id":"62qTv1CwO+5bX9/c78b3iQ=="},{"id":"PBZ3YQScHpPHUCi1CLfhcg=="},{"id":"YxQ1moEesqQUNgrGjex8Vg=="},{"id":"5FdzZz3SGyR1oEinClzQaQ=="},{"id":"iLfiym6kDj3wULYBKmr5bw=="},{"id":"+h/fcTbxTi6BLaIfhuXsbg=="},{"id":"BCEkaUiFQbYOzEwfP8o4Fw=="},{"id":"+g4e32Nk39l2HP91oBQFiQ=="},{"id":"61+0Xhl1G7MGcAtLlPbtnw=="},{"id":"44hbB4mfR2L8fRpJWh7eQQ=="},{"id":"NJl1p8oBbGXdOOdrntrtJw=="},{"id":"Zfw/DMOqVJDHBv2LYEGBFA=="},{"id":"NiMrvy4FPz45jGVJUIFc7Q=="},{"id":"w0b5hmMPbrecAzYUZz1tjw=="},{"id":"WlWvB7NAMsdg34BKc0bVVg=="},{"id":"KupcO/M6FSbCqwdU7OepRw=="},{"id":"z9o9mLGAr7ncdIJvaeFT1g=="},{"id":"X+dXXr7lyu7LbQCHZubFqw=="}]
p19
aVfalse
p20
aVfalse
p21
aV[{"id":"defaultPreference","wallpaperColor":"default_chat_wallpaper"}]
p22
aV"gmvYfEFtK6rD5w+sbBQo+Q=="
p23
aV{"key":"EoZPVXFMVQ1KpHiuDBW2VkKME0AkkSbFA4Q5PCyIJ3s=","encKey":"IJtyPcE/KxXyirMTYvcat65Y7uQyx7/8pZxM3l83LSU=","macKey":"EoZPVXFMVQ1KpHiuDBW2VkKME0AkkSbFA4Q5PCyIJ3s="}
p24
aV"Cvb+BUywBYQB+Ye5BTzOeFEE/AiB8TJ5ugAvCQJL48M="
p25
aV"1@JmmYmEELnQlxmLQbl/WIqduMhLrn/6wLeKeVJBC2FXG034Nik9QqYW2pJeU18H5nMNpIECiUwE+eLQ=="
p26
aV291
p27
aV[{"id":"\U0001f602","char":"\U0001f602","weight":6.3111825},{"id":"\U0001f60b","char":"\U0001f60b","weight":2.860497},{"id":"\U0001f618","char":"\U0001f618","weight":2.6756148},{"id":"\U0001f61a","char":"\U0001f61a","weight":2.600013},{"id":"\U0001f641","char":"\U0001f641","weight":2.599523},{"id":"\U0001f605","char":"\U0001f605","weight":2.4097085},{"id":"\U0001f62d","char":"\U0001f62d","weight":2.370932},{"id":"\U0001f919\U0001f3fb","char":"\U0001f919\U0001f3fb","weight":2.348837},{"id":"\u2764","char":"\u2764","weight":2.2950425},{"id":"\U0001f60d","char":"\U0001f60d","weight":2.225389},{"id":"\U0001f609","char":"\U0001f609","weight":2.1456313},{"id":"\U0001f44c\U0001f3fb","char":"\U0001f44c\U0001f3fb","weight":2.1265903},{"id":"\U0001f44d\U0001f3fb","char":"\U0001f44d\U0001f3fb","weight":2.073219},{"id":"\U0001f479","char":"\U0001f479","weight":2.0499504},{"id":"\U0001f614","char":"\U0001f614","weight":2.01287},{"id":"\U0001f441","char":"\U0001f441","weight":1.8177974},{"id":"\U0001f60a","char":"\U0001f60a","weight":1.7120458},{"id":"\U0001f44d\U0001f3fe","char":"\U0001f44d\U0001f3fe","weight":1.6260257},{"id":"\U0001f611","char":"\U0001f611","weight":1.6091626},{"id":"\U0001f61e","char":"\U0001f61e","weight":1.5611465},{"id":"\U0001f923","char":"\U0001f923","weight":1.4228759},{"id":"\U0001f60e","char":"\U0001f60e","weight":1.2778767},{"id":"\U0001f633","char":"\U0001f633","weight":1.2567831},{"id":"\U0001f621","char":"\U0001f621","weight":1.2327216},{"id":"\U0001f607","char":"\U0001f607","weight":1.1768358},{"id":"\U0001f604","char":"\U0001f604","weight":1.1296141},{"id":"\U0001f44d\U0001f3fc","char":"\U0001f44d\U0001f3fc","weight":1.0627785},{"id":"\U0001f914","char":"\U0001f914","weight":0.90530753},{"id":"\U0001f630","char":"\U0001f630","weight":0.8095585},{"id":"\u263a","char":"\u263a","weight":0.8053571},{"id":"\u270c\U0001f3fb","char":"\u270c\U0001f3fb","weight":1.6885721e-15},{"id":"\U0001f61d","char":"\U0001f61d","weight":1.5693934e-15},{"id":"\U0001f636","char":"\U0001f636","weight":1.3112834e-15},{"id":"\U0001f648","char":"\U0001f648","weight":1.2431835e-15},{"id":"\U0001f608","char":"\U0001f608","weight":1.0001137e-15},{"id":"\U0001f64a","char":"\U0001f64a","weight":5.6e-45}]
p28
aV"1@4Fn7NzldiyYZd7ESRCWocBFBuzhltfcwGBcne2q6SlCauHfopE+wJG6wi7YjmmUzrYNdfWEJwHg1xXutzPTwuWv4o1NMYCGhyL5kf/X5IHg02pN76OMMOFpO1wL7oVkN6ZURcXgw10g2PIox77aVqg=="
p29
aVfalse
p30
aVtrue
p31
aVstorage_test
p32
aV[{"id":"global_mute","expiration":0}]
p33
aV"x616974878:init_1500103053378"
p34
aa.